target datalayout = "e-m:e-p270:32:32-p271:32:32-p272:64:64-i64:64-i128:128-f80:128-n8:16:32:64-S128"
target triple = "x86_64-pc-linux-gnu"

%struct.nstime_t = type { i64, i32 }

@ett_nfs3_nfstime = internal global i32 0, align 4

; Function Attrs: null_pointer_is_valid sspstrong uwtable
define internal i32 @dissect_nfstime3(ptr noundef %0, i32 noundef %1, ptr noundef %2, i32 noundef %3, i32 noundef %4, i32 noundef %5) #0 {
  %7 = alloca ptr, align 8
  %8 = alloca i32, align 4
  %9 = alloca ptr, align 8
  %10 = alloca i32, align 4
  %11 = alloca i32, align 4
  %12 = alloca i32, align 4
  %13 = alloca i32, align 4
  %14 = alloca i32, align 4
  %15 = alloca %struct.nstime_t, align 8
  %16 = alloca ptr, align 8
  %17 = alloca ptr, align 8
  store ptr %0, ptr %7, align 8
  store i32 %1, ptr %8, align 4
  store ptr %2, ptr %9, align 8
  store i32 %3, ptr %10, align 4
  store i32 %4, ptr %11, align 4
  store i32 %5, ptr %12, align 4
  call void @llvm.lifetime.start.p0(i64 4, ptr %13) #16
  call void @llvm.lifetime.start.p0(i64 4, ptr %14) #16
  call void @llvm.lifetime.start.p0(i64 16, ptr %15) #16
  %18 = load ptr, ptr %7, align 8
  %19 = load i32, ptr %8, align 4
  %20 = add i32 %19, 0
  %21 = call i32 @tvb_get_ntohl(ptr noundef %18, i32 noundef %20)
  store i32 %21, ptr %13, align 4
  %22 = load ptr, ptr %7, align 8
  %23 = load i32, ptr %8, align 4
  %24 = add i32 %23, 4
  %25 = call i32 @tvb_get_ntohl(ptr noundef %22, i32 noundef %24)
  store i32 %25, ptr %14, align 4
  %26 = load i32, ptr %13, align 4
  %27 = zext i32 %26 to i64
  %28 = getelementptr inbounds nuw %struct.nstime_t, ptr %15, i32 0, i32 0
  store i64 %27, ptr %28, align 8
  %29 = load i32, ptr %14, align 4
  %30 = getelementptr inbounds nuw %struct.nstime_t, ptr %15, i32 0, i32 1
  store i32 %29, ptr %30, align 8
  %31 = load ptr, ptr %9, align 8
  %32 = icmp ne ptr %31, null
  br i1 %32, label %33, label %55

33:                                               ; preds = %6
  call void @llvm.lifetime.start.p0(i64 8, ptr %16) #16
  call void @llvm.lifetime.start.p0(i64 8, ptr %17) #16
  %34 = load ptr, ptr %9, align 8
  %35 = load i32, ptr %10, align 4
  %36 = load ptr, ptr %7, align 8
  %37 = load i32, ptr %8, align 4
  %38 = call ptr @proto_tree_add_time(ptr noundef %34, i32 noundef %35, ptr noundef %36, i32 noundef %37, i32 noundef 8, ptr noundef %15)
  store ptr %38, ptr %16, align 8
  %39 = load ptr, ptr %16, align 8
  %40 = load i32, ptr @ett_nfs3_nfstime, align 4
  %41 = call ptr @proto_item_add_subtree(ptr noundef %39, i32 noundef %40)
  store ptr %41, ptr %17, align 8
  %42 = load ptr, ptr %17, align 8
  %43 = load i32, ptr %11, align 4
  %44 = load ptr, ptr %7, align 8
  %45 = load i32, ptr %8, align 4
  %46 = load i32, ptr %13, align 4
  %47 = call ptr @proto_tree_add_uint(ptr noundef %42, i32 noundef %43, ptr noundef %44, i32 noundef %45, i32 noundef 4, i32 noundef %46)
  %48 = load ptr, ptr %17, align 8
  %49 = load i32, ptr %12, align 4
  %50 = load ptr, ptr %7, align 8
  %51 = load i32, ptr %8, align 4
  %52 = add i32 %51, 4
  %53 = load i32, ptr %14, align 4
  %54 = call ptr @proto_tree_add_uint(ptr noundef %48, i32 noundef %49, ptr noundef %50, i32 noundef %52, i32 noundef 4, i32 noundef %53)
  call void @llvm.lifetime.end.p0(i64 8, ptr %17) #16
  call void @llvm.lifetime.end.p0(i64 8, ptr %16) #16
  br label %55

55:                                               ; preds = %33, %6
  %56 = load i32, ptr %8, align 4
  %57 = add i32 %56, 8
  store i32 %57, ptr %8, align 4
  %58 = load i32, ptr %8, align 4
  call void @llvm.lifetime.end.p0(i64 16, ptr %15) #16
  call void @llvm.lifetime.end.p0(i64 4, ptr %14) #16
  call void @llvm.lifetime.end.p0(i64 4, ptr %13) #16
  ret i32 %58
}