; Function Attrs: null_pointer_is_valid sspstrong uwtable
define internal fastcc noundef i32 @dissect_nfstime3(ptr noundef %0, i32 noundef %1, ptr noundef %2, i32 noundef %3, i32 noundef %4, i32 noundef %5) unnamed_addr #0 {
  %7 = alloca %struct.nstime_t, align 8
  call void @llvm.lifetime.start.p0(i64 16, ptr nonnull %7) #22
  %8 = tail call i32 @tvb_get_ntohl(ptr noundef %0, i32 noundef %1)
  %9 = add i32 %1, 4
  %10 = tail call i32 @tvb_get_ntohl(ptr noundef %0, i32 noundef %9)
  %11 = zext i32 %8 to i64
  store i64 %11, ptr %7, align 8
  %12 = getelementptr inbounds nuw i8, ptr %7, i64 8
  store i32 %10, ptr %12, align 8
  %.not = icmp eq ptr %2, null
  br i1 %.not, label %19, label %13

13:                                               ; preds = %6
  %14 = call ptr @proto_tree_add_time(ptr noundef nonnull %2, i32 noundef %3, ptr noundef %0, i32 noundef %1, i32 noundef 8, ptr noundef nonnull %7)
  %15 = load i32, ptr @ett_nfs3_nfstime, align 4
  %16 = call ptr @proto_item_add_subtree(ptr noundef %14, i32 noundef %15)
  %17 = call ptr @proto_tree_add_uint(ptr noundef %16, i32 noundef %4, ptr noundef %0, i32 noundef %1, i32 noundef 4, i32 noundef %8)
  %18 = call ptr @proto_tree_add_uint(ptr noundef %16, i32 noundef %5, ptr noundef %0, i32 noundef %9, i32 noundef 4, i32 noundef %10)
  br label %19

19:                                               ; preds = %13, %6
  %20 = add i32 %1, 8
  call void @llvm.lifetime.end.p0(i64 16, ptr nonnull %7) #22
  ret i32 %20
}